; Function Attrs: null_pointer_is_valid sspstrong uwtable
define internal noundef zeroext i16 @be_talker_id(ptr noundef %0, ptr noundef %1, ptr readnone captures(none) %2, i32 noundef %3, i32 noundef %4, ptr readnone captures(none) %5, i32 %6) #1 {
  %8 = load i32, ptr @hf_gsm_a_bssmap_spare_bits, align 4
  %9 = shl i32 %3, 3
  %10 = tail call ptr @proto_tree_add_bits_item(ptr noundef %1, i32 noundef %8, ptr noundef %0, i32 noundef %9, i32 noundef 5, i32 noundef 0)
  %11 = load i32, ptr @hf_gsm_a_bssmap_filler_bits, align 4
  %12 = tail call ptr @proto_tree_add_item(ptr noundef %1, i32 noundef %11, ptr noundef %0, i32 noundef %3, i32 noundef 1, i32 noundef 0)
  %13 = add i32 %3, 1
  %14 = load i32, ptr @hf_gsm_a_bssmap_talker_identity_field, align 4
  %15 = add i32 %4, -1
  %16 = tail call ptr @proto_tree_add_item(ptr noundef %1, i32 noundef %14, ptr noundef %0, i32 noundef %13, i32 noundef %15, i32 noundef 0)
  %17 = trunc i32 %4 to i16
  ret i16 %17
}